target datalayout = "e-m:e-p270:32:32-p271:32:32-p272:64:64-i64:64-i128:128-f80:128-n8:16:32:64-S128"
target triple = "x86_64-pc-linux-gnu"

%"class.std::vector.7" = type { %"struct.std::_Vector_base.8" }
%"struct.std::_Vector_base.8" = type { %"struct.std::_Vector_base<unsigned int, std::allocator<unsigned int>>::_Vector_impl" }
%"struct.std::_Vector_base<unsigned int, std::allocator<unsigned int>>::_Vector_impl" = type { %"struct.std::_Vector_base<unsigned int, std::allocator<unsigned int>>::_Vector_impl_data" }
%"struct.std::_Vector_base<unsigned int, std::allocator<unsigned int>>::_Vector_impl_data" = type { ptr, ptr, ptr }
%"class.cv::line_descriptor::BinaryDescriptorMatcher::SparseHashtable" = type { %"class.std::vector.43", i32, i64 }
%"class.std::vector.43" = type { %"struct.std::_Vector_base.44" }
%"struct.std::_Vector_base.44" = type { %"struct.std::_Vector_base<cv::line_descriptor::BinaryDescriptorMatcher::BucketGroup, std::allocator<cv::line_descriptor::BinaryDescriptorMatcher::BucketGroup>>::_Vector_impl" }
%"struct.std::_Vector_base<cv::line_descriptor::BinaryDescriptorMatcher::BucketGroup, std::allocator<cv::line_descriptor::BinaryDescriptorMatcher::BucketGroup>>::_Vector_impl" = type { %"struct.std::_Vector_base<cv::line_descriptor::BinaryDescriptorMatcher::BucketGroup, std::allocator<cv::line_descriptor::BinaryDescriptorMatcher::BucketGroup>>::_Vector_impl_data" }
%"struct.std::_Vector_base<cv::line_descriptor::BinaryDescriptorMatcher::BucketGroup, std::allocator<cv::line_descriptor::BinaryDescriptorMatcher::BucketGroup>>::_Vector_impl_data" = type { ptr, ptr, ptr }
%"class.cv::line_descriptor::BinaryDescriptorMatcher::BucketGroup" = type { i32, %"class.std::vector.7" }

; Function Attrs: mustprogress nounwind uwtable
define linkonce_odr hidden noundef nonnull align 8 dereferenceable(32) ptr @_ZNSt6vectorIN2cv15line_descriptor23BinaryDescriptorMatcher11BucketGroupESaIS3_EEixEm(ptr noundef nonnull align 8 dereferenceable(24) %0, i64 noundef %1) #5 comdat align 2 {
  %3 = alloca ptr, align 8
  %4 = alloca i64, align 8
  store ptr %0, ptr %3, align 8, !tbaa !199
  store i64 %1, ptr %4, align 8, !tbaa !49
  %5 = load ptr, ptr %3, align 8
  %6 = getelementptr inbounds nuw %"struct.std::_Vector_base.44", ptr %5, i32 0, i32 0
  %7 = getelementptr inbounds nuw %"struct.std::_Vector_base<cv::line_descriptor::BinaryDescriptorMatcher::BucketGroup, std::allocator<cv::line_descriptor::BinaryDescriptorMatcher::BucketGroup>>::_Vector_impl_data", ptr %6, i32 0, i32 0
  %8 = load ptr, ptr %7, align 8, !tbaa !204
  %9 = load i64, ptr %4, align 8, !tbaa !49
  %10 = getelementptr inbounds nuw %"class.cv::line_descriptor::BinaryDescriptorMatcher::BucketGroup", ptr %8, i64 %9
  ret ptr %10
}

; Function Attrs: mustprogress uwtable
define void @_ZN2cv15line_descriptor23BinaryDescriptorMatcher15SparseHashtable6insertEmj(ptr noundef nonnull align 8 dereferenceable(40) %0, i64 noundef %1, i32 noundef %2) #4 align 2 {
  %4 = alloca ptr, align 8
  %5 = alloca i64, align 8
  %6 = alloca i32, align 4
  store ptr %0, ptr %4, align 8, !tbaa !179
  store i64 %1, ptr %5, align 8, !tbaa !49
  store i32 %2, ptr %6, align 4, !tbaa !60
  %7 = load ptr, ptr %4, align 8
  %8 = getelementptr inbounds nuw %"class.cv::line_descriptor::BinaryDescriptorMatcher::SparseHashtable", ptr %7, i32 0, i32 0
  %9 = load i64, ptr %5, align 8, !tbaa !49
  %10 = lshr i64 %9, 5
  %11 = call noundef nonnull align 8 dereferenceable(32) ptr @_ZNSt6vectorIN2cv15line_descriptor23BinaryDescriptorMatcher11BucketGroupESaIS3_EEixEm(ptr noundef nonnull align 8 dereferenceable(24) %8, i64 noundef %10) #3
  %12 = load i64, ptr %5, align 8, !tbaa !49
  %13 = and i64 %12, 31
  %14 = trunc i64 %13 to i32
  %15 = load i32, ptr %6, align 4, !tbaa !60
  call void @_ZN2cv15line_descriptor23BinaryDescriptorMatcher11BucketGroup6insertEij(ptr noundef nonnull align 8 dereferenceable(32) %11, i32 noundef %14, i32 noundef %15)
  ret void
}