; Function Attrs: mustprogress uwtable
define void @_ZN2cv15line_descriptor23BinaryDescriptorMatcher15SparseHashtable6insertEmj(ptr noundef nonnull readonly align 8 captures(none) dereferenceable(40) %0, i64 noundef %1, i32 noundef %2) local_unnamed_addr #3 align 2 {
  %4 = lshr i64 %1, 5
  %5 = load ptr, ptr %0, align 8, !tbaa !92
  %6 = getelementptr inbounds nuw %"class.cv::line_descriptor::BinaryDescriptorMatcher::BucketGroup", ptr %5, i64 %4
  %7 = trunc i64 %1 to i32
  %8 = and i32 %7, 31
  tail call void @_ZN2cv15line_descriptor23BinaryDescriptorMatcher11BucketGroup6insertEij(ptr noundef nonnull align 8 dereferenceable(32) %6, i32 noundef %8, i32 noundef %2)
  ret void
}